	.file	"simplesync.c"
	.text
.Ltext0:
	.file 0 "/home/orion/Desktop/ntua/semester6/operating_systems/lab/OSLab/exercise2/sync" "simplesync.c"
	.section	.rodata.str1.8,"aMS",@progbits,1
	.align 8
.LC0:
	.string	"About to increase variable %d times\n"
	.section	.rodata.str1.1,"aMS",@progbits,1
.LC1:
	.string	"Done increasing variable.\n"
	.text
	.p2align 4
	.globl	increase_fn
	.type	increase_fn, @function
increase_fn:
.LVL0:
.LFB23:
	.file 1 "simplesync.c"
	.loc 1 42 1 view -0
	.cfi_startproc
	.loc 1 43 2 view .LVU1
	.loc 1 44 2 view .LVU2
	.loc 1 42 1 is_stmt 0 view .LVU3
	pushq	%rbx
	.cfi_def_cfa_offset 16
	.cfi_offset 3, -16
	.loc 1 42 1 view .LVU4
	movq	%rdi, %rbx
.LVL1:
	.loc 1 46 2 is_stmt 1 view .LVU5
	movq	stderr(%rip), %rdi
.LVL2:
	.loc 1 46 2 is_stmt 0 view .LVU6
	movl	$10000000, %edx
	leaq	.LC0(%rip), %rsi
	xorl	%eax, %eax
	call	fprintf@PLT
.LVL3:
	.loc 1 47 2 is_stmt 1 view .LVU7
	.loc 1 47 16 discriminator 1 view .LVU8
	.loc 1 46 2 is_stmt 0 view .LVU9
	movl	$10000000, %eax
.LVL4:
	.p2align 4,,10
	.p2align 3
.L2:
	.loc 1 48 3 is_stmt 1 view .LVU10
	.loc 1 51 4 view .LVU11
	lock addl	$1, (%rbx)
	.loc 1 47 22 discriminator 2 view .LVU12
	.loc 1 47 16 discriminator 1 view .LVU13
	.loc 1 48 3 view .LVU14
	.loc 1 51 4 view .LVU15
	lock addl	$1, (%rbx)
	.loc 1 47 22 discriminator 2 view .LVU16
	.loc 1 47 16 discriminator 1 view .LVU17
	subl	$2, %eax
	jne	.L2
	.loc 1 60 2 view .LVU18
	movq	stderr(%rip), %rcx
	movl	$26, %edx
	movl	$1, %esi
	leaq	.LC1(%rip), %rdi
	call	fwrite@PLT
.LVL5:
	.loc 1 62 2 view .LVU19
	.loc 1 63 1 is_stmt 0 view .LVU20
	xorl	%eax, %eax
	popq	%rbx
	.cfi_def_cfa_offset 8
.LVL6:
	.loc 1 63 1 view .LVU21
	ret
	.cfi_endproc
.LFE23:
	.size	increase_fn, .-increase_fn
	.section	.rodata.str1.8
	.align 8
.LC2:
	.string	"About to decrease variable %d times\n"
	.section	.rodata.str1.1
.LC3:
	.string	"Done decreasing variable.\n"
	.text
	.p2align 4
	.globl	decrease_fn
	.type	decrease_fn, @function
decrease_fn:
.LVL7:
.LFB24:
	.loc 1 66 1 is_stmt 1 view -0
	.cfi_startproc
	.loc 1 67 2 view .LVU23
	.loc 1 68 2 view .LVU24
	.loc 1 66 1 is_stmt 0 view .LVU25
	pushq	%rbx
	.cfi_def_cfa_offset 16
	.cfi_offset 3, -16
	.loc 1 66 1 view .LVU26
	movq	%rdi, %rbx
.LVL8:
	.loc 1 70 2 is_stmt 1 view .LVU27
	movq	stderr(%rip), %rdi
.LVL9:
	.loc 1 70 2 is_stmt 0 view .LVU28
	movl	$10000000, %edx
	leaq	.LC2(%rip), %rsi
	xorl	%eax, %eax
	call	fprintf@PLT
.LVL10:
	.loc 1 71 2 is_stmt 1 view .LVU29
	.loc 1 71 16 discriminator 1 view .LVU30
	.loc 1 70 2 is_stmt 0 view .LVU31
	movl	$10000000, %eax
.LVL11:
	.p2align 4,,10
	.p2align 3
.L8:
	.loc 1 72 3 is_stmt 1 view .LVU32
	.loc 1 75 4 view .LVU33
	lock subl	$1, (%rbx)
	.loc 1 71 22 discriminator 2 view .LVU34
	.loc 1 71 16 discriminator 1 view .LVU35
	.loc 1 72 3 view .LVU36
	.loc 1 75 4 view .LVU37
	lock subl	$1, (%rbx)
	.loc 1 71 22 discriminator 2 view .LVU38
	.loc 1 71 16 discriminator 1 view .LVU39
	subl	$2, %eax
	jne	.L8
	.loc 1 84 2 view .LVU40
	movq	stderr(%rip), %rcx
	movl	$26, %edx
	movl	$1, %esi
	leaq	.LC3(%rip), %rdi
	call	fwrite@PLT
.LVL12:
	.loc 1 86 2 view .LVU41
	.loc 1 87 1 is_stmt 0 view .LVU42
	xorl	%eax, %eax
	popq	%rbx
	.cfi_def_cfa_offset 8
.LVL13:
	.loc 1 87 1 view .LVU43
	ret
	.cfi_endproc
.LFE24:
	.size	decrease_fn, .-decrease_fn
	.section	.rodata.str1.1
.LC4:
	.string	""
.LC5:
	.string	"NOT "
.LC6:
	.string	"pthread_create"
.LC7:
	.string	"pthread_join"
.LC8:
	.string	"%sOK, val = %d.\n"
	.section	.text.unlikely,"ax",@progbits
.LCOLDB9:
	.section	.text.startup,"ax",@progbits
.LHOTB9:
	.p2align 4
	.section	.text.unlikely
.Ltext_cold0:
	.section	.text.startup
	.globl	main
	.type	main, @function
main:
.LVL14:
.LFB25:
	.loc 1 91 1 is_stmt 1 view -0
	.cfi_startproc
	.loc 1 91 1 is_stmt 0 view .LVU45
	pushq	%rbp
	.cfi_def_cfa_offset 16
	.cfi_offset 6, -16
	.loc 1 103 8 view .LVU46
	xorl	%esi, %esi
.LVL15:
	.loc 1 103 8 view .LVU47
	leaq	increase_fn(%rip), %rdx
	.loc 1 91 1 view .LVU48
	pushq	%rbx
	.cfi_def_cfa_offset 24
	.cfi_offset 3, -24
	subq	$40, %rsp
	.cfi_def_cfa_offset 64
	.loc 1 91 1 view .LVU49
	movq	%fs:40, %rax
	movq	%rax, 24(%rsp)
	xorl	%eax, %eax
	.loc 1 92 2 is_stmt 1 view .LVU50
	.loc 1 93 2 view .LVU51
	.loc 1 98 2 view .LVU52
	.loc 1 103 8 is_stmt 0 view .LVU53
	leaq	4(%rsp), %rbp
	leaq	8(%rsp), %rdi
.LVL16:
	.loc 1 98 6 view .LVU54
	movl	$0, 4(%rsp)
	.loc 1 103 2 is_stmt 1 view .LVU55
	.loc 1 103 8 is_stmt 0 view .LVU56
	movq	%rbp, %rcx
	call	pthread_create@PLT
.LVL17:
	.loc 1 104 2 is_stmt 1 view .LVU57
	.loc 1 104 5 is_stmt 0 view .LVU58
	testl	%eax, %eax
	jne	.L26
	.loc 1 108 2 is_stmt 1 view .LVU59
	.loc 1 108 8 is_stmt 0 view .LVU60
	leaq	16(%rsp), %rdi
	movq	%rbp, %rcx
	leaq	decrease_fn(%rip), %rdx
	xorl	%esi, %esi
	call	pthread_create@PLT
.LVL18:
	.loc 1 108 8 view .LVU61
	movl	%eax, %ebx
.LVL19:
	.loc 1 109 2 is_stmt 1 view .LVU62
	.loc 1 109 5 is_stmt 0 view .LVU63
	testl	%eax, %eax
	jne	.L27
	.loc 1 117 2 is_stmt 1 view .LVU64
	.loc 1 117 8 is_stmt 0 view .LVU65
	movq	8(%rsp), %rdi
	xorl	%esi, %esi
	call	pthread_join@PLT
.LVL20:
	.loc 1 117 8 view .LVU66
	movl	%eax, %ebx
.LVL21:
	.loc 1 118 2 is_stmt 1 view .LVU67
	.loc 1 118 5 is_stmt 0 view .LVU68
	testl	%eax, %eax
	jne	.L28
.LVL22:
.L15:
	.loc 1 119 3 is_stmt 1 discriminator 1 view .LVU69
	.loc 1 120 2 view .LVU70
	.loc 1 120 8 is_stmt 0 view .LVU71
	movq	16(%rsp), %rdi
	xorl	%esi, %esi
	call	pthread_join@PLT
.LVL23:
	movl	%eax, %ebx
.LVL24:
	.loc 1 121 2 is_stmt 1 view .LVU72
	.loc 1 121 5 is_stmt 0 view .LVU73
	testl	%eax, %eax
	jne	.L29
.LVL25:
.L16:
	.loc 1 122 3 is_stmt 1 discriminator 1 view .LVU74
	.loc 1 127 2 view .LVU75
	.loc 1 127 12 is_stmt 0 view .LVU76
	movl	4(%rsp), %edx
	xorl	%ebx, %ebx
.LVL26:
	.loc 1 129 2 discriminator 1 view .LVU77
	leaq	.LC4(%rip), %rax
	leaq	.LC5(%rip), %rsi
	.loc 1 129 2 discriminator 4 view .LVU78
	leaq	.LC8(%rip), %rdi
	.loc 1 127 12 view .LVU79
	testl	%edx, %edx
	.loc 1 129 2 discriminator 1 view .LVU80
	cmove	%rax, %rsi
	.loc 1 127 12 view .LVU81
	sete	%bl
.LVL27:
	.loc 1 129 2 is_stmt 1 view .LVU82
	.loc 1 129 2 is_stmt 0 discriminator 4 view .LVU83
	xorl	%eax, %eax
	call	printf@PLT
.LVL28:
	.loc 1 131 2 is_stmt 1 view .LVU84
	.loc 1 132 1 is_stmt 0 view .LVU85
	movq	24(%rsp), %rax
	subq	%fs:40, %rax
	jne	.L31
	addq	$40, %rsp
	.cfi_remember_state
	.cfi_def_cfa_offset 24
	movl	%ebx, %eax
.LVL29:
	.loc 1 132 1 view .LVU86
	popq	%rbx
	.cfi_def_cfa_offset 16
	popq	%rbp
	.cfi_def_cfa_offset 8
	ret
.LVL30:
.L31:
	.cfi_restore_state
	.loc 1 132 1 view .LVU87
	call	__stack_chk_fail@PLT
.LVL31:
	.loc 1 132 1 view .LVU88
	.cfi_endproc
	.section	.text.unlikely
	.cfi_startproc
	.type	main.cold, @function
main.cold:
.LFSB25:
.L29:
	.cfi_def_cfa_offset 64
	.cfi_offset 3, -24
	.cfi_offset 6, -16
	.loc 1 122 3 is_stmt 1 view -0
	.loc 1 122 3 view .LVU90
	call	__errno_location@PLT
.LVL32:
	.loc 1 122 3 is_stmt 0 discriminator 1 view .LVU91
	leaq	.LC7(%rip), %rdi
	movl	%ebx, (%rax)
	.loc 1 122 3 is_stmt 1 discriminator 1 view .LVU92
	call	perror@PLT
.LVL33:
	jmp	.L16
.LVL34:
.L28:
	.loc 1 119 3 view .LVU93
	.loc 1 119 3 view .LVU94
	call	__errno_location@PLT
.LVL35:
	.loc 1 119 3 is_stmt 0 discriminator 1 view .LVU95
	leaq	.LC7(%rip), %rdi
	movl	%ebx, (%rax)
	.loc 1 119 3 is_stmt 1 discriminator 1 view .LVU96
	call	perror@PLT
.LVL36:
	jmp	.L15
.LVL37:
.L27:
	.loc 1 110 3 view .LVU97
	.loc 1 110 3 view .LVU98
	call	__errno_location@PLT
.LVL38:
	.loc 1 110 3 is_stmt 0 discriminator 1 view .LVU99
	leaq	.LC6(%rip), %rdi
	movl	%ebx, (%rax)
	.loc 1 110 3 is_stmt 1 discriminator 1 view .LVU100
	call	perror@PLT
.LVL39:
	.loc 1 110 3 discriminator 2 view .LVU101
	.loc 1 111 3 view .LVU102
	movl	$1, %edi
	call	exit@PLT
.LVL40:
.L26:
	.loc 1 111 3 is_stmt 0 view .LVU103
	movl	%eax, %ebx
	.loc 1 105 3 is_stmt 1 view .LVU104
	.loc 1 105 3 view .LVU105
	call	__errno_location@PLT
.LVL41:
	.loc 1 105 3 is_stmt 0 discriminator 1 view .LVU106
	leaq	.LC6(%rip), %rdi
	movl	%ebx, (%rax)
	.loc 1 105 3 is_stmt 1 discriminator 1 view .LVU107
	call	perror@PLT
.LVL42:
	.loc 1 105 3 discriminator 2 view .LVU108
	.loc 1 106 3 view .LVU109
	movl	$1, %edi
	call	exit@PLT
.LVL43:
	.cfi_endproc
.LFE25:
	.section	.text.startup
	.size	main, .-main
	.section	.text.unlikely
	.size	main.cold, .-main.cold
.LCOLDE9:
	.section	.text.startup
.LHOTE9:
	.globl	mut
	.bss
	.align 32
	.type	mut, @object
	.size	mut, 40
mut:
	.zero	40
	.text
.Letext0:
	.section	.text.unlikely
.Letext_cold0:
	.file 2 "/usr/lib/gcc/x86_64-pc-linux-gnu/14.1.1/include/stddef.h"
	.file 3 "/usr/include/bits/types.h"
	.file 4 "/usr/include/bits/types/struct_FILE.h"
	.file 5 "/usr/include/bits/types/FILE.h"
	.file 6 "/usr/include/bits/thread-shared-types.h"
	.file 7 "/usr/include/bits/struct_mutex.h"
	.file 8 "/usr/include/bits/pthreadtypes.h"
	.file 9 "/usr/include/stdio.h"
	.file 10 "/usr/include/pthread.h"
	.file 11 "/usr/include/stdlib.h"
	.file 12 "/usr/include/errno.h"
	.file 13 "<built-in>"
	.section	.note.GNU-stack,"",@progbits
